target datalayout = "e-m:e-p270:32:32-p271:32:32-p272:64:64-i64:64-i128:128-f80:128-n8:16:32:64-S128"
target triple = "x86_64-unknown-linux-gnu"

%"class.node::performance::PerformanceState" = type <{ %"class.node::AliasedBufferBase", %"class.node::AliasedBufferBase.0", %"class.node::AliasedBufferBase.3", i64, i16, [6 x i8] }>
%"class.node::AliasedBufferBase" = type { %"class.node::MemoryRetainer", ptr, i64, i64, ptr, %"class.v8::Global", ptr }
%"class.node::MemoryRetainer" = type { ptr }
%"class.v8::Global" = type { %"class.v8::PersistentBase" }
%"class.v8::PersistentBase" = type { %"class.v8::IndirectHandleBase" }
%"class.v8::IndirectHandleBase" = type { ptr }
%"class.node::AliasedBufferBase.0" = type { %"class.node::MemoryRetainer", ptr, i64, i64, ptr, %"class.v8::Global.1", ptr }
%"class.v8::Global.1" = type { %"class.v8::PersistentBase.2" }
%"class.v8::PersistentBase.2" = type { %"class.v8::IndirectHandleBase" }
%"class.node::AliasedBufferBase.3" = type { %"class.node::MemoryRetainer", ptr, i64, i64, ptr, %"class.v8::Global.4", ptr }
%"class.v8::Global.4" = type { %"class.v8::PersistentBase.5" }
%"class.v8::PersistentBase.5" = type { %"class.v8::IndirectHandleBase" }
%"class.std::vector" = type { %"struct.std::_Vector_base" }
%"struct.std::_Vector_base" = type { %"struct.std::_Vector_base<std::__cxx11::basic_string<char>, std::allocator<std::__cxx11::basic_string<char>>>::_Vector_impl" }
%"struct.std::_Vector_base<std::__cxx11::basic_string<char>, std::allocator<std::__cxx11::basic_string<char>>>::_Vector_impl" = type { %"struct.std::_Vector_base<std::__cxx11::basic_string<char>, std::allocator<std::__cxx11::basic_string<char>>>::_Vector_impl_data" }
%"struct.std::_Vector_base<std::__cxx11::basic_string<char>, std::allocator<std::__cxx11::basic_string<char>>>::_Vector_impl_data" = type { ptr, ptr, ptr }
%"class.v8::Global.19" = type { %"class.v8::PersistentBase.20" }
%"class.v8::PersistentBase.20" = type { %"class.v8::IndirectHandleBase" }
%"class.node::CleanupQueue" = type { %"class.node::MemoryRetainer", %"class.std::unordered_set", i64 }
%"class.std::unordered_set" = type { %"class.std::_Hashtable" }
%"class.std::_Hashtable" = type { ptr, i64, %"struct.std::__detail::_Hash_node_base", i64, %"struct.std::__detail::_Prime_rehash_policy", ptr }
%"struct.std::__detail::_Hash_node_base" = type { ptr }
%"struct.std::__detail::_Prime_rehash_policy" = type { float, i64 }
%"class.node::Environment" = type { %"class.node::MemoryRetainer", %"class.std::unordered_multimap", %"class.std::__cxx11::list", ptr, ptr, %struct.uv_timer_s, %struct.uv_check_s, %struct.uv_idle_s, %struct.uv_prepare_s, %struct.uv_check_s, %struct.uv_async_s, i64, %"struct.std::atomic.56", %"struct.std::atomic.56", %"class.node::AsyncHooks", %"class.node::ImmediateInfo", %"class.node::AliasedBufferBase.66", %"class.node::TickInfo", %"class.node::permission::Permission", i64, %"class.std::shared_ptr", i8, i8, i8, i8, i8, i8, i64, %"class.std::vector.88", %"class.std::unordered_set.93", %"class.std::unique_ptr", %"class.std::unique_ptr.115", %"class.std::__cxx11::basic_string", %"class.std::__cxx11::basic_string", %"class.std::__cxx11::basic_string", i64, %"class.std::unique_ptr.127", %"class.std::__cxx11::basic_string", %"class.std::__cxx11::basic_string", i64, %"class.std::shared_ptr.135", %"class.std::shared_ptr.138", %"class.std::vector", %"class.std::vector", %"class.std::__cxx11::basic_string", i8, i32, i32, i8, i32, i32, i32, i32, %"class.node::AliasedBufferBase.66", %"class.node::AliasedBufferBase.3", i32, %"class.std::unique_ptr.141", %"class.node::AliasedBufferBase.66", i64, double, i64, %"class.std::unique_ptr.149", i8, i64, i64, %"class.std::unordered_set.157", %"class.std::unique_ptr.177", i8, %"class.std::__cxx11::list.185", %"class.node::ListHead", %"class.node::ListHead.190", %"class.std::__cxx11::list.192", i32, i32, %"class.node::EnabledDebugList", %"class.std::vector.197", %"class.std::__cxx11::list.202", %"class.node::MutexBase", %"class.std::__cxx11::list.207", %"class.node::CallbackQueue", %"class.node::MutexBase", %"class.node::CallbackQueue", %"class.node::CallbackQueue", i8, %"struct.std::atomic.222", %"class.node::CleanupQueue", i8, %"class.std::unordered_set.224", %"class.std::function", %"class.std::unique_ptr.239", %"class.node::builtins::BuiltinLoader", %"class.std::function.253", %"class.std::unordered_map.255" }
%"class.std::unordered_multimap" = type { %"class.std::_Hashtable.32" }
%"class.std::_Hashtable.32" = type { ptr, i64, %"struct.std::__detail::_Hash_node_base", i64, %"struct.std::__detail::_Prime_rehash_policy", ptr }
%"class.std::__cxx11::list" = type { %"class.std::__cxx11::_List_base" }
%"class.std::__cxx11::_List_base" = type { %"struct.std::__cxx11::_List_base<node::binding::DLib, std::allocator<node::binding::DLib>>::_List_impl" }
%"struct.std::__cxx11::_List_base<node::binding::DLib, std::allocator<node::binding::DLib>>::_List_impl" = type { %"struct.std::__detail::_List_node_header" }
%"struct.std::__detail::_List_node_header" = type { %"struct.std::__detail::_List_node_base", i64 }
%"struct.std::__detail::_List_node_base" = type { ptr, ptr }
%struct.uv_timer_s = type { ptr, ptr, i32, ptr, %struct.uv__queue, %union.anon.51, ptr, i32, ptr, [3 x ptr], i64, i64, i64 }
%struct.uv__queue = type { ptr, ptr }
%union.anon.51 = type { [4 x ptr] }
%struct.uv_idle_s = type { ptr, ptr, i32, ptr, %struct.uv__queue, %union.anon.53, ptr, i32, ptr, %struct.uv__queue }
%union.anon.53 = type { [4 x ptr] }
%struct.uv_prepare_s = type { ptr, ptr, i32, ptr, %struct.uv__queue, %union.anon.54, ptr, i32, ptr, %struct.uv__queue }
%union.anon.54 = type { [4 x ptr] }
%struct.uv_check_s = type { ptr, ptr, i32, ptr, %struct.uv__queue, %union.anon.52, ptr, i32, ptr, %struct.uv__queue }
%union.anon.52 = type { [4 x ptr] }
%struct.uv_async_s = type { ptr, ptr, i32, ptr, %struct.uv__queue, %union.anon.55, ptr, i32, ptr, %struct.uv__queue, i32 }
%union.anon.55 = type { [4 x ptr] }
%"struct.std::atomic.56" = type { %"struct.std::__atomic_base.57" }
%"struct.std::__atomic_base.57" = type { i8 }
%"class.node::AsyncHooks" = type { %"class.node::MemoryRetainer", %"class.node::AliasedBufferBase.0", %"class.node::AliasedBufferBase.3", %"class.node::AliasedBufferBase.0", %"class.v8::Global.58", %"class.std::vector.60", ptr, %"struct.std::array.65" }
%"class.v8::Global.58" = type { %"class.v8::PersistentBase.59" }
%"class.v8::PersistentBase.59" = type { %"class.v8::IndirectHandleBase" }
%"class.std::vector.60" = type { %"struct.std::_Vector_base.61" }
%"struct.std::_Vector_base.61" = type { %"struct.std::_Vector_base<v8::Local<v8::Object>, std::allocator<v8::Local<v8::Object>>>::_Vector_impl" }
%"struct.std::_Vector_base<v8::Local<v8::Object>, std::allocator<v8::Local<v8::Object>>>::_Vector_impl" = type { %"struct.std::_Vector_base<v8::Local<v8::Object>, std::allocator<v8::Local<v8::Object>>>::_Vector_impl_data" }
%"struct.std::_Vector_base<v8::Local<v8::Object>, std::allocator<v8::Local<v8::Object>>>::_Vector_impl_data" = type { ptr, ptr, ptr }
%"struct.std::array.65" = type { [4 x %"class.v8::Global.19"] }
%"class.node::ImmediateInfo" = type { %"class.node::MemoryRetainer", %"class.node::AliasedBufferBase.3" }
%"class.node::TickInfo" = type { %"class.node::MemoryRetainer", %"class.node::AliasedBufferBase" }
%"class.node::permission::Permission" = type <{ %"class.std::unordered_map", i8, [7 x i8] }>
%"class.std::unordered_map" = type { %"class.std::_Hashtable.69" }
%"class.std::_Hashtable.69" = type { ptr, i64, %"struct.std::__detail::_Hash_node_base", i64, %"struct.std::__detail::_Prime_rehash_policy", ptr }
%"class.std::shared_ptr" = type { %"class.std::__shared_ptr" }
%"class.std::__shared_ptr" = type { ptr, %"class.std::__shared_count" }
%"class.std::__shared_count" = type { ptr }
%"class.std::vector.88" = type { %"struct.std::_Vector_base.89" }
%"struct.std::_Vector_base.89" = type { %"struct.std::_Vector_base<double, std::allocator<double>>::_Vector_impl" }
%"struct.std::_Vector_base<double, std::allocator<double>>::_Vector_impl" = type { %"struct.std::_Vector_base<double, std::allocator<double>>::_Vector_impl_data" }
%"struct.std::_Vector_base<double, std::allocator<double>>::_Vector_impl_data" = type { ptr, ptr, ptr }
%"class.std::unordered_set.93" = type { %"class.std::_Hashtable.94" }
%"class.std::_Hashtable.94" = type { ptr, i64, %"struct.std::__detail::_Hash_node_base", i64, %"struct.std::__detail::_Prime_rehash_policy", ptr }
%"class.std::unique_ptr" = type { %"struct.std::__uniq_ptr_data" }
%"struct.std::__uniq_ptr_data" = type { %"class.std::__uniq_ptr_impl" }
%"class.std::__uniq_ptr_impl" = type { %"class.std::tuple" }
%"class.std::tuple" = type { %"struct.std::_Tuple_impl" }
%"struct.std::_Tuple_impl" = type { %"struct.std::_Head_base.114" }
%"struct.std::_Head_base.114" = type { ptr }
%"class.std::unique_ptr.115" = type { %"struct.std::__uniq_ptr_data.116" }
%"struct.std::__uniq_ptr_data.116" = type { %"class.std::__uniq_ptr_impl.117" }
%"class.std::__uniq_ptr_impl.117" = type { %"class.std::tuple.118" }
%"class.std::tuple.118" = type { %"struct.std::_Tuple_impl.119" }
%"struct.std::_Tuple_impl.119" = type { %"struct.std::_Head_base.122" }
%"struct.std::_Head_base.122" = type { ptr }
%"class.std::unique_ptr.127" = type { %"struct.std::__uniq_ptr_data.128" }
%"struct.std::__uniq_ptr_data.128" = type { %"class.std::__uniq_ptr_impl.129" }
%"class.std::__uniq_ptr_impl.129" = type { %"class.std::tuple.130" }
%"class.std::tuple.130" = type { %"struct.std::_Tuple_impl.131" }
%"struct.std::_Tuple_impl.131" = type { %"struct.std::_Head_base.134" }
%"struct.std::_Head_base.134" = type { ptr }
%"class.std::shared_ptr.135" = type { %"class.std::__shared_ptr.136" }
%"class.std::__shared_ptr.136" = type { ptr, %"class.std::__shared_count" }
%"class.std::shared_ptr.138" = type { %"class.std::__shared_ptr.139" }
%"class.std::__shared_ptr.139" = type { ptr, %"class.std::__shared_count" }
%"class.std::__cxx11::basic_string" = type { %"struct.std::__cxx11::basic_string<char>::_Alloc_hider", i64, %union.anon.126 }
%"struct.std::__cxx11::basic_string<char>::_Alloc_hider" = type { ptr }
%union.anon.126 = type { i64, [8 x i8] }
%"class.std::unique_ptr.141" = type { %"struct.std::__uniq_ptr_data.142" }
%"struct.std::__uniq_ptr_data.142" = type { %"class.std::__uniq_ptr_impl.143" }
%"class.std::__uniq_ptr_impl.143" = type { %"class.std::tuple.144" }
%"class.std::tuple.144" = type { %"struct.std::_Tuple_impl.145" }
%"struct.std::_Tuple_impl.145" = type { %"struct.std::_Head_base.148" }
%"struct.std::_Head_base.148" = type { ptr }
%"class.node::AliasedBufferBase.66" = type { %"class.node::MemoryRetainer", ptr, i64, i64, ptr, %"class.v8::Global.67", ptr }
%"class.v8::Global.67" = type { %"class.v8::PersistentBase.68" }
%"class.v8::PersistentBase.68" = type { %"class.v8::IndirectHandleBase" }
%"class.std::unique_ptr.149" = type { %"struct.std::__uniq_ptr_data.150" }
%"struct.std::__uniq_ptr_data.150" = type { %"class.std::__uniq_ptr_impl.151" }
%"class.std::__uniq_ptr_impl.151" = type { %"class.std::tuple.152" }
%"class.std::tuple.152" = type { %"struct.std::_Tuple_impl.153" }
%"struct.std::_Tuple_impl.153" = type { %"struct.std::_Head_base.156" }
%"struct.std::_Head_base.156" = type { ptr }
%"class.std::unordered_set.157" = type { %"class.std::_Hashtable.158" }
%"class.std::_Hashtable.158" = type { ptr, i64, %"struct.std::__detail::_Hash_node_base", i64, %"struct.std::__detail::_Prime_rehash_policy", ptr }
%"class.std::unique_ptr.177" = type { %"struct.std::__uniq_ptr_data.178" }
%"struct.std::__uniq_ptr_data.178" = type { %"class.std::__uniq_ptr_impl.179" }
%"class.std::__uniq_ptr_impl.179" = type { %"class.std::tuple.180" }
%"class.std::tuple.180" = type { %"struct.std::_Tuple_impl.181" }
%"struct.std::_Tuple_impl.181" = type { %"struct.std::_Head_base.184" }
%"struct.std::_Head_base.184" = type { ptr }
%"class.std::__cxx11::list.185" = type { %"class.std::__cxx11::_List_base.186" }
%"class.std::__cxx11::_List_base.186" = type { %"struct.std::__cxx11::_List_base<node::DeserializeRequest, std::allocator<node::DeserializeRequest>>::_List_impl" }
%"struct.std::__cxx11::_List_base<node::DeserializeRequest, std::allocator<node::DeserializeRequest>>::_List_impl" = type { %"struct.std::__detail::_List_node_header" }
%"class.node::ListHead" = type { %"class.node::ListNode" }
%"class.node::ListNode" = type { ptr, ptr }
%"class.node::ListHead.190" = type { %"class.node::ListNode.191" }
%"class.node::ListNode.191" = type { ptr, ptr }
%"class.std::__cxx11::list.192" = type { %"class.std::__cxx11::_List_base.193" }
%"class.std::__cxx11::_List_base.193" = type { %"struct.std::__cxx11::_List_base<node::Environment::HandleCleanup, std::allocator<node::Environment::HandleCleanup>>::_List_impl" }
%"struct.std::__cxx11::_List_base<node::Environment::HandleCleanup, std::allocator<node::Environment::HandleCleanup>>::_List_impl" = type { %"struct.std::__detail::_List_node_header" }
%"class.node::EnabledDebugList" = type { [75 x i8] }
%"class.std::vector.197" = type { %"struct.std::_Vector_base.198" }
%"struct.std::_Vector_base.198" = type { %"struct.std::_Vector_base<v8::Global<v8::Context>, std::allocator<v8::Global<v8::Context>>>::_Vector_impl" }
%"struct.std::_Vector_base<v8::Global<v8::Context>, std::allocator<v8::Global<v8::Context>>>::_Vector_impl" = type { %"struct.std::_Vector_base<v8::Global<v8::Context>, std::allocator<v8::Global<v8::Context>>>::_Vector_impl_data" }
%"struct.std::_Vector_base<v8::Global<v8::Context>, std::allocator<v8::Global<v8::Context>>>::_Vector_impl_data" = type { ptr, ptr, ptr }
%"class.std::__cxx11::list.202" = type { %"class.std::__cxx11::_List_base.203" }
%"class.std::__cxx11::_List_base.203" = type { %"struct.std::__cxx11::_List_base<node::node_module, std::allocator<node::node_module>>::_List_impl" }
%"struct.std::__cxx11::_List_base<node::node_module, std::allocator<node::node_module>>::_List_impl" = type { %"struct.std::__detail::_List_node_header" }
%"class.std::__cxx11::list.207" = type { %"class.std::__cxx11::_List_base.208" }
%"class.std::__cxx11::_List_base.208" = type { %"struct.std::__cxx11::_List_base<node::Environment::ExitCallback, std::allocator<node::Environment::ExitCallback>>::_List_impl" }
%"struct.std::__cxx11::_List_base<node::Environment::ExitCallback, std::allocator<node::Environment::ExitCallback>>::_List_impl" = type { %"struct.std::__detail::_List_node_header" }
%"class.node::MutexBase" = type { %union.pthread_mutex_t }
%union.pthread_mutex_t = type { %struct.__pthread_mutex_s }
%struct.__pthread_mutex_s = type { i32, i32, i32, i32, i32, i16, i16, %struct.__pthread_internal_list }
%struct.__pthread_internal_list = type { ptr, ptr }
%"class.node::CallbackQueue" = type { %"struct.std::atomic.212", %"class.std::unique_ptr.214", ptr }
%"struct.std::atomic.212" = type { %"struct.std::__atomic_base.213" }
%"struct.std::__atomic_base.213" = type { i64 }
%"class.std::unique_ptr.214" = type { %"struct.std::__uniq_ptr_data.215" }
%"struct.std::__uniq_ptr_data.215" = type { %"class.std::__uniq_ptr_impl.216" }
%"class.std::__uniq_ptr_impl.216" = type { %"class.std::tuple.217" }
%"class.std::tuple.217" = type { %"struct.std::_Tuple_impl.218" }
%"struct.std::_Tuple_impl.218" = type { %"struct.std::_Head_base.221" }
%"struct.std::_Head_base.221" = type { ptr }
%"struct.std::atomic.222" = type { %"struct.std::__atomic_base.223" }
%"struct.std::__atomic_base.223" = type { ptr }
%"class.std::unordered_set.224" = type { %"class.std::_Hashtable.225" }
%"class.std::_Hashtable.225" = type { ptr, i64, %"struct.std::__detail::_Hash_node_base", i64, %"struct.std::__detail::_Prime_rehash_policy", ptr }
%"class.std::function" = type { %"class.std::_Function_base", ptr }
%"class.std::_Function_base" = type { %"union.std::_Any_data", ptr }
%"union.std::_Any_data" = type { %"union.std::_Nocopy_types" }
%"union.std::_Nocopy_types" = type { { i64, i64 } }
%"class.std::unique_ptr.239" = type { %"struct.std::__uniq_ptr_data.240" }
%"struct.std::__uniq_ptr_data.240" = type { %"class.std::__uniq_ptr_impl.241" }
%"class.std::__uniq_ptr_impl.241" = type { %"class.std::tuple.242" }
%"class.std::tuple.242" = type { %"struct.std::_Tuple_impl.243" }
%"struct.std::_Tuple_impl.243" = type { %"struct.std::_Head_base.246" }
%"struct.std::_Head_base.246" = type { ptr }
%"class.node::builtins::BuiltinLoader" = type { %"class.node::ThreadsafeCopyOnWrite", %"class.node::UnionBytes", %"class.std::shared_ptr.250" }
%"class.node::ThreadsafeCopyOnWrite" = type { %"class.node::CopyOnWrite" }
%"class.node::CopyOnWrite" = type { %"class.std::shared_ptr.247" }
%"class.std::shared_ptr.247" = type { %"class.std::__shared_ptr.248" }
%"class.std::__shared_ptr.248" = type { ptr, %"class.std::__shared_count" }
%"class.node::UnionBytes" = type { ptr, ptr }
%"class.std::shared_ptr.250" = type { %"class.std::__shared_ptr.251" }
%"class.std::__shared_ptr.251" = type { ptr, %"class.std::__shared_count" }
%"class.std::function.253" = type { %"class.std::_Function_base", ptr }
%"class.std::unordered_map.255" = type { %"class.std::_Hashtable.256" }
%"class.std::_Hashtable.256" = type { ptr, i64, %"struct.std::__detail::_Hash_node_base", i64, %"struct.std::__detail::_Prime_rehash_policy", ptr }

; Function Attrs: mustprogress nounwind uwtable
define linkonce_odr dso_local noundef nonnull align 8 dereferenceable(8) ptr @_ZNSt10_Head_baseILm0EPN4node11performance16PerformanceStateELb0EE7_M_headERKS4_(ptr noundef nonnull align 8 dereferenceable(8) %__b) #4 comdat align 2 {
entry:
  %__b.addr = alloca ptr, align 8
  store ptr %__b, ptr %__b.addr, align 8
  %0 = load ptr, ptr %__b.addr, align 8
  %_M_head_impl = getelementptr inbounds %"struct.std::_Head_base.156", ptr %0, i32 0, i32 0
  ret ptr %_M_head_impl
}

; Function Attrs: mustprogress nounwind uwtable
define linkonce_odr dso_local noundef nonnull align 8 dereferenceable(8) ptr @_ZNSt11_Tuple_implILm0EJPN4node11performance16PerformanceStateESt14default_deleteIS2_EEE7_M_headERKS6_(ptr noundef nonnull align 8 dereferenceable(8) %__t) #4 comdat align 2 {
entry:
  %__t.addr = alloca ptr, align 8
  store ptr %__t, ptr %__t.addr, align 8
  %0 = load ptr, ptr %__t.addr, align 8
  %call = call noundef nonnull align 8 dereferenceable(8) ptr @_ZNSt10_Head_baseILm0EPN4node11performance16PerformanceStateELb0EE7_M_headERKS4_(ptr noundef nonnull align 8 dereferenceable(8) %0) #3
  ret ptr %call
}

; Function Attrs: mustprogress nounwind uwtable
define linkonce_odr dso_local noundef nonnull align 8 dereferenceable(8) ptr @_ZSt12__get_helperILm0EPN4node11performance16PerformanceStateEJSt14default_deleteIS2_EEERKT0_RKSt11_Tuple_implIXT_EJS6_DpT1_EE(ptr noundef nonnull align 8 dereferenceable(8) %__t) #4 comdat {
entry:
  %__t.addr = alloca ptr, align 8
  store ptr %__t, ptr %__t.addr, align 8
  %0 = load ptr, ptr %__t.addr, align 8
  %call = call noundef nonnull align 8 dereferenceable(8) ptr @_ZNSt11_Tuple_implILm0EJPN4node11performance16PerformanceStateESt14default_deleteIS2_EEE7_M_headERKS6_(ptr noundef nonnull align 8 dereferenceable(8) %0) #3
  ret ptr %call
}

; Function Attrs: mustprogress nounwind uwtable
define linkonce_odr dso_local noundef nonnull align 8 dereferenceable(8) ptr @_ZSt3getILm0EJPN4node11performance16PerformanceStateESt14default_deleteIS2_EEERKNSt13tuple_elementIXT_ESt5tupleIJDpT0_EEE4typeERKSA_(ptr noundef nonnull align 8 dereferenceable(8) %__t) #4 comdat {
entry:
  %__t.addr = alloca ptr, align 8
  store ptr %__t, ptr %__t.addr, align 8
  %0 = load ptr, ptr %__t.addr, align 8
  %call = call noundef nonnull align 8 dereferenceable(8) ptr @_ZSt12__get_helperILm0EPN4node11performance16PerformanceStateEJSt14default_deleteIS2_EEERKT0_RKSt11_Tuple_implIXT_EJS6_DpT1_EE(ptr noundef nonnull align 8 dereferenceable(8) %0) #3
  ret ptr %call
}

; Function Attrs: mustprogress nounwind uwtable
define linkonce_odr dso_local noundef ptr @_ZNKSt15__uniq_ptr_implIN4node11performance16PerformanceStateESt14default_deleteIS2_EE6_M_ptrEv(ptr noundef nonnull align 8 dereferenceable(8) %this) #4 comdat align 2 {
entry:
  %this.addr = alloca ptr, align 8
  store ptr %this, ptr %this.addr, align 8
  %this1 = load ptr, ptr %this.addr, align 8
  %_M_t = getelementptr inbounds %"class.std::__uniq_ptr_impl.151", ptr %this1, i32 0, i32 0
  %call = call noundef nonnull align 8 dereferenceable(8) ptr @_ZSt3getILm0EJPN4node11performance16PerformanceStateESt14default_deleteIS2_EEERKNSt13tuple_elementIXT_ESt5tupleIJDpT0_EEE4typeERKSA_(ptr noundef nonnull align 8 dereferenceable(8) %_M_t) #3
  %0 = load ptr, ptr %call, align 8
  ret ptr %0
}

; Function Attrs: mustprogress nounwind uwtable
define linkonce_odr dso_local noundef ptr @_ZNKSt10unique_ptrIN4node11performance16PerformanceStateESt14default_deleteIS2_EE3getEv(ptr noundef nonnull align 8 dereferenceable(8) %this) #4 comdat align 2 {
entry:
  %this.addr = alloca ptr, align 8
  store ptr %this, ptr %this.addr, align 8
  %this1 = load ptr, ptr %this.addr, align 8
  %_M_t = getelementptr inbounds %"class.std::unique_ptr.149", ptr %this1, i32 0, i32 0
  %call = call noundef ptr @_ZNKSt15__uniq_ptr_implIN4node11performance16PerformanceStateESt14default_deleteIS2_EE6_M_ptrEv(ptr noundef nonnull align 8 dereferenceable(8) %_M_t) #3
  ret ptr %call
}

; Function Attrs: mustprogress nounwind uwtable
define linkonce_odr dso_local noundef ptr @_ZNK4node11Environment7isolateEv(ptr noundef nonnull align 8 dereferenceable(2872) %this) #4 comdat align 2 {
entry:
  %this.addr = alloca ptr, align 8
  store ptr %this, ptr %this.addr, align 8
  %this1 = load ptr, ptr %this.addr, align 8
  %isolate_ = getelementptr inbounds %"class.node::Environment", ptr %this1, i32 0, i32 3
  %0 = load ptr, ptr %isolate_, align 8
  ret ptr %0
}

; Function Attrs: mustprogress nounwind uwtable
define linkonce_odr dso_local noundef ptr @_ZN4node11Environment17performance_stateEv(ptr noundef nonnull align 8 dereferenceable(2872) %this) #4 comdat align 2 {
entry:
  %this.addr = alloca ptr, align 8
  store ptr %this, ptr %this.addr, align 8
  %this1 = load ptr, ptr %this.addr, align 8
  %performance_state_ = getelementptr inbounds %"class.node::Environment", ptr %this1, i32 0, i32 61
  %call = call noundef ptr @_ZNKSt10unique_ptrIN4node11performance16PerformanceStateESt14default_deleteIS2_EE3getEv(ptr noundef nonnull align 8 dereferenceable(8) %performance_state_) #3
  ret ptr %call
}

; Function Attrs: mustprogress nounwind uwtable
define dso_local void @_ZN4node11performance28GarbageCollectionCleanupHookEPv(ptr noundef %data) #4 {
entry:
  %data.addr = alloca ptr, align 8
  %env = alloca ptr, align 8
  store ptr %data, ptr %data.addr, align 8
  %0 = load ptr, ptr %data.addr, align 8
  store ptr %0, ptr %env, align 8
  %1 = load ptr, ptr %env, align 8
  %call = call noundef ptr @_ZN4node11Environment17performance_stateEv(ptr noundef nonnull align 8 dereferenceable(2872) %1)
  %current_gc_type = getelementptr inbounds %"class.node::performance::PerformanceState", ptr %call, i32 0, i32 4
  store i16 0, ptr %current_gc_type, align 8
  %2 = load ptr, ptr %env, align 8
  %call1 = call noundef ptr @_ZNK4node11Environment7isolateEv(ptr noundef nonnull align 8 dereferenceable(2872) %2)
  %3 = load ptr, ptr %data.addr, align 8
  call void @_ZN2v87Isolate24RemoveGCPrologueCallbackEPFvPS0_NS_6GCTypeENS_15GCCallbackFlagsEPvES4_(ptr noundef nonnull align 1 dereferenceable(1) %call1, ptr noundef @_ZN4node11performance26MarkGarbageCollectionStartEPN2v87IsolateENS1_6GCTypeENS1_15GCCallbackFlagsEPv, ptr noundef %3)
  %4 = load ptr, ptr %env, align 8
  %call2 = call noundef ptr @_ZNK4node11Environment7isolateEv(ptr noundef nonnull align 8 dereferenceable(2872) %4)
  %5 = load ptr, ptr %data.addr, align 8
  call void @_ZN2v87Isolate24RemoveGCEpilogueCallbackEPFvPS0_NS_6GCTypeENS_15GCCallbackFlagsEPvES4_(ptr noundef nonnull align 1 dereferenceable(1) %call2, ptr noundef @_ZN4node11performance24MarkGarbageCollectionEndEPN2v87IsolateENS1_6GCTypeENS1_15GCCallbackFlagsEPv, ptr noundef %5)
  ret void
}