; Function Attrs: mustprogress nounwind uwtable
define dso_local void @_ZN4node11performance28GarbageCollectionCleanupHookEPv(ptr noundef %data) #3 {
entry:
  %performance_state_.i = getelementptr inbounds i8, ptr %data, i64 2048
  %0 = load ptr, ptr %performance_state_.i, align 8
  %current_gc_type = getelementptr inbounds i8, ptr %0, i64 176
  store i16 0, ptr %current_gc_type, align 8
  %isolate_.i = getelementptr inbounds i8, ptr %data, i64 88
  %1 = load ptr, ptr %isolate_.i, align 8
  tail call void @_ZN2v87Isolate24RemoveGCPrologueCallbackEPFvPS0_NS_6GCTypeENS_15GCCallbackFlagsEPvES4_(ptr noundef nonnull align 1 dereferenceable(1) %1, ptr noundef nonnull @_ZN4node11performance26MarkGarbageCollectionStartEPN2v87IsolateENS1_6GCTypeENS1_15GCCallbackFlagsEPv, ptr noundef nonnull %data) #20
  %2 = load ptr, ptr %isolate_.i, align 8
  tail call void @_ZN2v87Isolate24RemoveGCEpilogueCallbackEPFvPS0_NS_6GCTypeENS_15GCCallbackFlagsEPvES4_(ptr noundef nonnull align 1 dereferenceable(1) %2, ptr noundef nonnull @_ZN4node11performance24MarkGarbageCollectionEndEPN2v87IsolateENS1_6GCTypeENS1_15GCCallbackFlagsEPv, ptr noundef nonnull %data) #20
  ret void
}